; Function Attrs: nounwind uwtable
define hidden range(i32 -2147483647, -2147483648) i32 @uv__tcsetattr(i32 noundef %0, i32 noundef %1, ptr noundef %2) local_unnamed_addr #0 {
  br label %4

4:                                                ; preds = %7, %3
  %5 = tail call i32 @tcsetattr(i32 noundef %0, i32 noundef %1, ptr noundef %2) #8
  %6 = icmp eq i32 %5, -1
  br i1 %6, label %7, label %.critedge5

7:                                                ; preds = %4
  %8 = tail call ptr @__errno_location() #9
  %9 = load i32, ptr %8, align 4
  %10 = icmp eq i32 %9, 4
  br i1 %10, label %4, label %.critedge

.critedge:                                        ; preds = %7
  %11 = sub nsw i32 0, %9
  br label %.critedge5

.critedge5:                                       ; preds = %4, %.critedge
  %.0 = phi i32 [ %11, %.critedge ], [ 0, %4 ]
  ret i32 %.0
}